target datalayout = "e-m:e-p270:32:32-p271:32:32-p272:64:64-i64:64-i128:128-f80:128-n8:16:32:64-S128"
target triple = "x86_64-pc-linux-gnu"

%"class.icu_77::Package" = type <{ [64 x i8], [64 x i8], ptr, [1024 x i8], i32, i32, i8, i8, i8, i8, i32, i32, [4 x i8], ptr, i32, i32, [100000 x i8], [100000 x i8], i32, [4 x i8], ptr, ptr, i32, i32, i32, i8, [3 x i8] }>
%"struct.icu_77::Item" = type { ptr, ptr, i32, i8, i8 }
%struct.UDataSwapper = type { i8, i8, i8, i8, ptr, ptr, ptr, ptr, ptr, ptr, ptr, ptr, ptr, ptr, ptr }

@stderr = external global ptr, align 8
@.str.16 = private unnamed_addr constant [3 x i8] c"wb\00", align 1
@.str.17 = private unnamed_addr constant [36 x i8] c"icupkg: unable to create file \22%s\22\0A\00", align 1
@.str.27 = private unnamed_addr constant [42 x i8] c"icupkg: udata_swap(item %ld) failed - %s\0A\00", align 1
@.str.29 = private unnamed_addr constant [44 x i8] c"icupkg: unable to write complete file \22%s\22\0A\00", align 1
@.str.31 = private unnamed_addr constant [49 x i8] c"icupkg: udata_openSwapper(item %ld) failed - %s\0A\00", align 1
@.str.48 = private unnamed_addr constant [46 x i8] c"icupkg: unable to create tree directory \22%s\22\0A\00", align 1

; Function Attrs: inlinehint mustprogress nounwind uwtable
define internal noundef i32 @_ZL12makeTypeEnumc(i8 noundef signext %0) #2 {
  %2 = alloca i8, align 1
  store i8 %0, ptr %2, align 1, !tbaa !32
  %3 = load i8, ptr %2, align 1, !tbaa !32
  %4 = sext i8 %3 to i32
  %5 = icmp eq i32 %4, 108
  br i1 %5, label %6, label %7

6:                                                ; preds = %1
  br label %19

7:                                                ; preds = %1
  %8 = load i8, ptr %2, align 1, !tbaa !32
  %9 = sext i8 %8 to i32
  %10 = icmp eq i32 %9, 98
  br i1 %10, label %11, label %12

11:                                               ; preds = %7
  br label %17

12:                                               ; preds = %7
  %13 = load i8, ptr %2, align 1, !tbaa !32
  %14 = sext i8 %13 to i32
  %15 = icmp eq i32 %14, 101
  %16 = select i1 %15, i32 3, i32 -1
  br label %17

17:                                               ; preds = %12, %11
  %18 = phi i32 [ 1, %11 ], [ %16, %12 ]
  br label %19

19:                                               ; preds = %17, %6
  %20 = phi i32 [ 0, %6 ], [ %18, %17 ]
  ret i32 %20
}

; Function Attrs: mustprogress uwtable
define internal void @_ZL23makeFullFilenameAndDirsPKcS0_Pci(ptr noundef %0, ptr noundef %1, ptr noundef %2, i32 noundef %3) #0 {
  %5 = alloca ptr, align 8
  %6 = alloca ptr, align 8
  %7 = alloca ptr, align 8
  %8 = alloca i32, align 4
  %9 = alloca ptr, align 8
  %10 = alloca i32, align 4
  store ptr %0, ptr %5, align 8, !tbaa !3
  store ptr %1, ptr %6, align 8, !tbaa !3
  store ptr %2, ptr %7, align 8, !tbaa !3
  store i32 %3, ptr %8, align 4, !tbaa !8
  call void @llvm.lifetime.start.p0(i64 8, ptr %9) #13
  call void @llvm.lifetime.start.p0(i64 4, ptr %10) #13
  %11 = load ptr, ptr %5, align 8, !tbaa !3
  %12 = load ptr, ptr %6, align 8, !tbaa !3
  %13 = load ptr, ptr %7, align 8, !tbaa !3
  %14 = load i32, ptr %8, align 4, !tbaa !8
  call void @_ZL16makeFullFilenamePKcS0_Pci(ptr noundef %11, ptr noundef %12, ptr noundef %13, i32 noundef %14)
  store i32 0, ptr %10, align 4, !tbaa !13
  %15 = load ptr, ptr %7, align 8, !tbaa !3
  %16 = call noundef ptr @strchr(ptr noundef %15, i32 noundef 0) #15
  %17 = load ptr, ptr %6, align 8, !tbaa !3
  %18 = call i64 @strlen(ptr noundef %17) #15
  %19 = sub i64 0, %18
  %20 = getelementptr inbounds i8, ptr %16, i64 %19
  store ptr %20, ptr %9, align 8, !tbaa !3
  br label %21

21:                                               ; preds = %40, %4
  %22 = load ptr, ptr %9, align 8, !tbaa !3
  %23 = call noundef ptr @strchr(ptr noundef %22, i32 noundef 47) #15
  store ptr %23, ptr %9, align 8, !tbaa !3
  %24 = icmp ne ptr %23, null
  br i1 %24, label %25, label %43

25:                                               ; preds = %21
  %26 = load ptr, ptr %9, align 8, !tbaa !3
  %27 = load ptr, ptr %7, align 8, !tbaa !3
  %28 = icmp ne ptr %26, %27
  br i1 %28, label %29, label %40

29:                                               ; preds = %25
  %30 = load ptr, ptr %9, align 8, !tbaa !3
  store i8 0, ptr %30, align 1, !tbaa !32
  %31 = load ptr, ptr %7, align 8, !tbaa !3
  call void @uprv_mkdir(ptr noundef %31, ptr noundef %10)
  %32 = load i32, ptr %10, align 4, !tbaa !13
  %33 = call noundef signext i8 @_ZL9U_FAILURE10UErrorCode(i32 noundef %32)
  %34 = icmp ne i8 %33, 0
  br i1 %34, label %35, label %39

35:                                               ; preds = %29
  %36 = load ptr, ptr @stderr, align 8, !tbaa !54
  %37 = load ptr, ptr %7, align 8, !tbaa !3
  %38 = call i32 (ptr, ptr, ...) @fprintf(ptr noundef %36, ptr noundef @.str.48, ptr noundef %37) #13
  call void @exit(i32 noundef 4) #14
  unreachable

39:                                               ; preds = %29
  br label %40

40:                                               ; preds = %39, %25
  %41 = load ptr, ptr %9, align 8, !tbaa !3
  %42 = getelementptr inbounds nuw i8, ptr %41, i32 1
  store ptr %42, ptr %9, align 8, !tbaa !3
  store i8 47, ptr %41, align 1, !tbaa !32
  br label %21, !llvm.loop !88

43:                                               ; preds = %21
  call void @llvm.lifetime.end.p0(i64 4, ptr %10) #13
  call void @llvm.lifetime.end.p0(i64 8, ptr %9) #13
  ret void
}

; Function Attrs: inlinehint mustprogress nounwind uwtable
define internal noundef signext i8 @_ZL9U_FAILURE10UErrorCode(i32 noundef %0) #2 {
  %2 = alloca i32, align 4
  store i32 %0, ptr %2, align 4, !tbaa !13
  %3 = load i32, ptr %2, align 4, !tbaa !13
  %4 = icmp sgt i32 %3, 0
  %5 = zext i1 %4 to i8
  ret i8 %5
}

; Function Attrs: mustprogress uwtable
define internal void @_ZL13makeTypePropscRhRa(i8 noundef signext %0, ptr noundef nonnull align 1 dereferenceable(1) %1, ptr noundef nonnull align 1 dereferenceable(1) %2) #0 {
  %4 = alloca i8, align 1
  %5 = alloca ptr, align 8
  %6 = alloca ptr, align 8
  %7 = alloca i32, align 4
  store i8 %0, ptr %4, align 1, !tbaa !32
  store ptr %1, ptr %5, align 8, !tbaa !3
  store ptr %2, ptr %6, align 8, !tbaa !3
  call void @llvm.lifetime.start.p0(i64 4, ptr %7) #13
  %8 = load i8, ptr %4, align 1, !tbaa !32
  %9 = call noundef i32 @_ZL12makeTypeEnumc(i8 noundef signext %8)
  store i32 %9, ptr %7, align 4, !tbaa !8
  %10 = load i32, ptr %7, align 4, !tbaa !8
  %11 = ashr i32 %10, 1
  %12 = trunc i32 %11 to i8
  %13 = load ptr, ptr %5, align 8, !tbaa !3
  store i8 %12, ptr %13, align 1, !tbaa !32
  %14 = load i32, ptr %7, align 4, !tbaa !8
  %15 = and i32 %14, 1
  %16 = trunc i32 %15 to i8
  %17 = load ptr, ptr %6, align 8, !tbaa !3
  store i8 %16, ptr %17, align 1, !tbaa !32
  call void @llvm.lifetime.end.p0(i64 4, ptr %7) #13
  ret void
}

; Function Attrs: mustprogress uwtable
define void @_ZN6icu_777Package11extractItemEPKcS2_ic(ptr noundef nonnull align 8 dereferenceable(201237) %0, ptr noundef %1, ptr noundef %2, i32 noundef %3, i8 noundef signext %4) #0 align 2 {
  %6 = alloca ptr, align 8
  %7 = alloca ptr, align 8
  %8 = alloca ptr, align 8
  %9 = alloca i32, align 4
  %10 = alloca i8, align 1
  %11 = alloca [1024 x i8], align 16
  %12 = alloca ptr, align 8
  %13 = alloca ptr, align 8
  %14 = alloca ptr, align 8
  %15 = alloca i32, align 4
  %16 = alloca i8, align 1
  %17 = alloca i8, align 1
  %18 = alloca i8, align 1
  %19 = alloca i8, align 1
  %20 = alloca i32, align 4
  %21 = alloca i32, align 4
  store ptr %0, ptr %6, align 8, !tbaa !26
  store ptr %1, ptr %7, align 8, !tbaa !3
  store ptr %2, ptr %8, align 8, !tbaa !3
  store i32 %3, ptr %9, align 4, !tbaa !8
  store i8 %4, ptr %10, align 1, !tbaa !32
  %22 = load ptr, ptr %6, align 8
  call void @llvm.lifetime.start.p0(i64 1024, ptr %11) #13
  call void @llvm.lifetime.start.p0(i64 8, ptr %12) #13
  call void @llvm.lifetime.start.p0(i64 8, ptr %13) #13
  call void @llvm.lifetime.start.p0(i64 8, ptr %14) #13
  call void @llvm.lifetime.start.p0(i64 4, ptr %15) #13
  call void @llvm.lifetime.start.p0(i64 1, ptr %16) #13
  call void @llvm.lifetime.start.p0(i64 1, ptr %17) #13
  call void @llvm.lifetime.start.p0(i64 1, ptr %18) #13
  call void @llvm.lifetime.start.p0(i64 1, ptr %19) #13
  %23 = load i32, ptr %9, align 4, !tbaa !8
  %24 = icmp slt i32 %23, 0
  br i1 %24, label %30, label %25

25:                                               ; preds = %5
  %26 = getelementptr inbounds nuw %"class.icu_77::Package", ptr %22, i32 0, i32 10
  %27 = load i32, ptr %26, align 4, !tbaa !37
  %28 = load i32, ptr %9, align 4, !tbaa !8
  %29 = icmp sle i32 %27, %28
  br i1 %29, label %30, label %31

30:                                               ; preds = %25, %5
  store i32 1, ptr %20, align 4
  br label %141

31:                                               ; preds = %25
  %32 = getelementptr inbounds nuw %"class.icu_77::Package", ptr %22, i32 0, i32 13
  %33 = load ptr, ptr %32, align 8, !tbaa !39
  %34 = load i32, ptr %9, align 4, !tbaa !8
  %35 = sext i32 %34 to i64
  %36 = getelementptr inbounds %"struct.icu_77::Item", ptr %33, i64 %35
  store ptr %36, ptr %14, align 8, !tbaa !74
  %37 = load i8, ptr %10, align 1, !tbaa !32
  %38 = sext i8 %37 to i32
  %39 = icmp ne i32 %38, 0
  br i1 %39, label %40, label %102

40:                                               ; preds = %31
  %41 = load ptr, ptr %14, align 8, !tbaa !74
  %42 = getelementptr inbounds nuw %"struct.icu_77::Item", ptr %41, i32 0, i32 4
  %43 = load i8, ptr %42, align 1, !tbaa !70
  %44 = sext i8 %43 to i32
  %45 = load i8, ptr %10, align 1, !tbaa !32
  %46 = sext i8 %45 to i32
  %47 = icmp ne i32 %44, %46
  br i1 %47, label %48, label %102

48:                                               ; preds = %40
  call void @llvm.lifetime.start.p0(i64 4, ptr %21) #13
  store i32 0, ptr %21, align 4, !tbaa !13
  %49 = load ptr, ptr %14, align 8, !tbaa !74
  %50 = getelementptr inbounds nuw %"struct.icu_77::Item", ptr %49, i32 0, i32 4
  %51 = load i8, ptr %50, align 1, !tbaa !70
  call void @_ZL13makeTypePropscRhRa(i8 noundef signext %51, ptr noundef nonnull align 1 dereferenceable(1) %16, ptr noundef nonnull align 1 dereferenceable(1) %18)
  %52 = load i8, ptr %10, align 1, !tbaa !32
  call void @_ZL13makeTypePropscRhRa(i8 noundef signext %52, ptr noundef nonnull align 1 dereferenceable(1) %17, ptr noundef nonnull align 1 dereferenceable(1) %19)
  %53 = load i8, ptr %18, align 1, !tbaa !32
  %54 = load i8, ptr %16, align 1, !tbaa !32
  %55 = load i8, ptr %19, align 1, !tbaa !32
  %56 = load i8, ptr %17, align 1, !tbaa !32
  %57 = call ptr @udata_openSwapper_77(i8 noundef signext %53, i8 noundef zeroext %54, i8 noundef signext %55, i8 noundef zeroext %56, ptr noundef %21)
  store ptr %57, ptr %12, align 8, !tbaa !56
  %58 = load i32, ptr %21, align 4, !tbaa !13
  %59 = call noundef signext i8 @_ZL9U_FAILURE10UErrorCode(i32 noundef %58)
  %60 = icmp ne i8 %59, 0
  br i1 %60, label %61, label %69

61:                                               ; preds = %48
  %62 = load ptr, ptr @stderr, align 8, !tbaa !54
  %63 = load i32, ptr %9, align 4, !tbaa !8
  %64 = sext i32 %63 to i64
  %65 = load i32, ptr %21, align 4, !tbaa !13
  %66 = call ptr @u_errorName_77(i32 noundef %65)
  %67 = call i32 (ptr, ptr, ...) @fprintf(ptr noundef %62, ptr noundef @.str.31, i64 noundef %64, ptr noundef %66) #13
  %68 = load i32, ptr %21, align 4, !tbaa !13
  call void @exit(i32 noundef %68) #14
  unreachable

69:                                               ; preds = %48
  %70 = load ptr, ptr %12, align 8, !tbaa !56
  %71 = getelementptr inbounds nuw %struct.UDataSwapper, ptr %70, i32 0, i32 13
  store ptr @_ZL17printPackageErrorPvPKcP13__va_list_tag, ptr %71, align 8, !tbaa !58
  %72 = load ptr, ptr @stderr, align 8, !tbaa !54
  %73 = load ptr, ptr %12, align 8, !tbaa !56
  %74 = getelementptr inbounds nuw %struct.UDataSwapper, ptr %73, i32 0, i32 14
  store ptr %72, ptr %74, align 8, !tbaa !60
  %75 = load ptr, ptr %12, align 8, !tbaa !56
  %76 = load ptr, ptr %14, align 8, !tbaa !74
  %77 = getelementptr inbounds nuw %"struct.icu_77::Item", ptr %76, i32 0, i32 1
  %78 = load ptr, ptr %77, align 8, !tbaa !51
  %79 = load ptr, ptr %14, align 8, !tbaa !74
  %80 = getelementptr inbounds nuw %"struct.icu_77::Item", ptr %79, i32 0, i32 2
  %81 = load i32, ptr %80, align 8, !tbaa !69
  %82 = load ptr, ptr %14, align 8, !tbaa !74
  %83 = getelementptr inbounds nuw %"struct.icu_77::Item", ptr %82, i32 0, i32 1
  %84 = load ptr, ptr %83, align 8, !tbaa !51
  %85 = call i32 @udata_swap(ptr noundef %75, ptr noundef %78, i32 noundef %81, ptr noundef %84, ptr noundef %21)
  %86 = load i32, ptr %21, align 4, !tbaa !13
  %87 = call noundef signext i8 @_ZL9U_FAILURE10UErrorCode(i32 noundef %86)
  %88 = icmp ne i8 %87, 0
  br i1 %88, label %89, label %97

89:                                               ; preds = %69
  %90 = load ptr, ptr @stderr, align 8, !tbaa !54
  %91 = load i32, ptr %9, align 4, !tbaa !8
  %92 = sext i32 %91 to i64
  %93 = load i32, ptr %21, align 4, !tbaa !13
  %94 = call ptr @u_errorName_77(i32 noundef %93)
  %95 = call i32 (ptr, ptr, ...) @fprintf(ptr noundef %90, ptr noundef @.str.27, i64 noundef %92, ptr noundef %94) #13
  %96 = load i32, ptr %21, align 4, !tbaa !13
  call void @exit(i32 noundef %96) #14
  unreachable

97:                                               ; preds = %69
  %98 = load ptr, ptr %12, align 8, !tbaa !56
  call void @udata_closeSwapper_77(ptr noundef %98)
  %99 = load i8, ptr %10, align 1, !tbaa !32
  %100 = load ptr, ptr %14, align 8, !tbaa !74
  %101 = getelementptr inbounds nuw %"struct.icu_77::Item", ptr %100, i32 0, i32 4
  store i8 %99, ptr %101, align 1, !tbaa !70
  call void @llvm.lifetime.end.p0(i64 4, ptr %21) #13
  br label %102

102:                                              ; preds = %97, %40, %31
  %103 = load ptr, ptr %7, align 8, !tbaa !3
  %104 = load ptr, ptr %8, align 8, !tbaa !3
  %105 = getelementptr inbounds [1024 x i8], ptr %11, i64 0, i64 0
  call void @_ZL23makeFullFilenameAndDirsPKcS0_Pci(ptr noundef %103, ptr noundef %104, ptr noundef %105, i32 noundef 1024)
  %106 = getelementptr inbounds [1024 x i8], ptr %11, i64 0, i64 0
  %107 = call noalias ptr @fopen(ptr noundef %106, ptr noundef @.str.16)
  store ptr %107, ptr %13, align 8, !tbaa !54
  %108 = load ptr, ptr %13, align 8, !tbaa !54
  %109 = icmp eq ptr %108, null
  br i1 %109, label %110, label %114

110:                                              ; preds = %102
  %111 = load ptr, ptr @stderr, align 8, !tbaa !54
  %112 = getelementptr inbounds [1024 x i8], ptr %11, i64 0, i64 0
  %113 = call i32 (ptr, ptr, ...) @fprintf(ptr noundef %111, ptr noundef @.str.17, ptr noundef %112) #13
  call void @exit(i32 noundef 4) #14
  unreachable

114:                                              ; preds = %102
  %115 = load ptr, ptr %14, align 8, !tbaa !74
  %116 = getelementptr inbounds nuw %"struct.icu_77::Item", ptr %115, i32 0, i32 1
  %117 = load ptr, ptr %116, align 8, !tbaa !51
  %118 = load ptr, ptr %14, align 8, !tbaa !74
  %119 = getelementptr inbounds nuw %"struct.icu_77::Item", ptr %118, i32 0, i32 2
  %120 = load i32, ptr %119, align 8, !tbaa !69
  %121 = sext i32 %120 to i64
  %122 = load ptr, ptr %13, align 8, !tbaa !54
  %123 = call i64 @fwrite(ptr noundef %117, i64 noundef 1, i64 noundef %121, ptr noundef %122)
  %124 = trunc i64 %123 to i32
  store i32 %124, ptr %15, align 4, !tbaa !8
  %125 = load ptr, ptr %13, align 8, !tbaa !54
  %126 = call i32 @ferror(ptr noundef %125) #13
  %127 = icmp ne i32 %126, 0
  br i1 %127, label %134, label %128

128:                                              ; preds = %114
  %129 = load i32, ptr %15, align 4, !tbaa !8
  %130 = load ptr, ptr %14, align 8, !tbaa !74
  %131 = getelementptr inbounds nuw %"struct.icu_77::Item", ptr %130, i32 0, i32 2
  %132 = load i32, ptr %131, align 8, !tbaa !69
  %133 = icmp ne i32 %129, %132
  br i1 %133, label %134, label %138

134:                                              ; preds = %128, %114
  %135 = load ptr, ptr @stderr, align 8, !tbaa !54
  %136 = getelementptr inbounds [1024 x i8], ptr %11, i64 0, i64 0
  %137 = call i32 (ptr, ptr, ...) @fprintf(ptr noundef %135, ptr noundef @.str.29, ptr noundef %136) #13
  call void @exit(i32 noundef 4) #14
  unreachable

138:                                              ; preds = %128
  %139 = load ptr, ptr %13, align 8, !tbaa !54
  %140 = call i32 @fclose(ptr noundef %139)
  store i32 0, ptr %20, align 4
  br label %141

141:                                              ; preds = %138, %30
  call void @llvm.lifetime.end.p0(i64 1, ptr %19) #13
  call void @llvm.lifetime.end.p0(i64 1, ptr %18) #13
  call void @llvm.lifetime.end.p0(i64 1, ptr %17) #13
  call void @llvm.lifetime.end.p0(i64 1, ptr %16) #13
  call void @llvm.lifetime.end.p0(i64 4, ptr %15) #13
  call void @llvm.lifetime.end.p0(i64 8, ptr %14) #13
  call void @llvm.lifetime.end.p0(i64 8, ptr %13) #13
  call void @llvm.lifetime.end.p0(i64 8, ptr %12) #13
  call void @llvm.lifetime.end.p0(i64 1024, ptr %11) #13
  %142 = load i32, ptr %20, align 4
  switch i32 %142, label %144 [
    i32 0, label %143
    i32 1, label %143
  ]

143:                                              ; preds = %141, %141
  ret void

144:                                              ; preds = %141
  unreachable
}