; Function Attrs: mustprogress uwtable
define void @_ZN6icu_777Package11extractItemEPKcS2_ic(ptr noundef nonnull readonly align 8 captures(none) dereferenceable(201237) %0, ptr noundef %1, ptr noundef %2, i32 noundef %3, i8 noundef signext %4) local_unnamed_addr #13 align 2 {
  %6 = alloca i32, align 4
  %7 = alloca [1024 x i8], align 16
  %8 = alloca i32, align 4
  call void @llvm.lifetime.start.p0(i64 1024, ptr nonnull %7) #23
  %9 = icmp sgt i32 %3, -1
  %10 = getelementptr inbounds nuw i8, ptr %0, i64 1172
  %11 = load i32, ptr %10, align 4
  %.not = icmp sgt i32 %11, %3
  %or.cond = select i1 %9, i1 %.not, i1 false
  br i1 %or.cond, label %12, label %102

12:                                               ; preds = %5
  %13 = getelementptr inbounds nuw i8, ptr %0, i64 1184
  %14 = load ptr, ptr %13, align 8, !tbaa !30
  %15 = zext nneg i32 %3 to i64
  %16 = getelementptr inbounds nuw %"struct.icu_77::Item", ptr %14, i64 %15
  %.not31 = icmp eq i8 %4, 0
  br i1 %.not31, label %66, label %17

17:                                               ; preds = %12
  %18 = getelementptr inbounds nuw i8, ptr %16, i64 21
  %19 = load i8, ptr %18, align 1, !tbaa !56
  %.not32 = icmp eq i8 %19, %4
  br i1 %.not32, label %66, label %20

20:                                               ; preds = %17
  call void @llvm.lifetime.start.p0(i64 4, ptr nonnull %8) #23
  store i32 0, ptr %8, align 4, !tbaa !3
  %21 = icmp eq i8 %19, 108
  %22 = icmp eq i8 %19, 98
  %23 = icmp eq i8 %19, 101
  %24 = select i1 %23, i32 3, i32 -1
  %25 = select i1 %22, i32 1, i32 %24
  %26 = select i1 %21, i32 0, i32 %25
  %27 = lshr i32 %26, 1
  %28 = trunc i32 %27 to i8
  %29 = trunc nsw i32 %26 to i8
  %30 = and i8 %29, 1
  %31 = icmp eq i8 %4, 108
  %32 = icmp eq i8 %4, 98
  %33 = icmp eq i8 %4, 101
  %34 = select i1 %33, i32 3, i32 -1
  %35 = select i1 %32, i32 1, i32 %34
  %36 = select i1 %31, i32 0, i32 %35
  %37 = lshr i32 %36, 1
  %38 = trunc i32 %37 to i8
  %39 = trunc nsw i32 %36 to i8
  %40 = and i8 %39, 1
  %41 = call ptr @udata_openSwapper_77(i8 noundef signext %30, i8 noundef zeroext %28, i8 noundef signext %40, i8 noundef zeroext %38, ptr noundef nonnull %8)
  %42 = load i32, ptr %8, align 4, !tbaa !3
  %43 = icmp slt i32 %42, 1
  br i1 %43, label %49, label %44

44:                                               ; preds = %20
  %45 = load ptr, ptr @stderr, align 8, !tbaa !36
  %46 = call ptr @u_errorName_77(i32 noundef %42)
  %47 = call i32 (ptr, ptr, ...) @fprintf(ptr noundef %45, ptr noundef nonnull @.str.31, i64 noundef %15, ptr noundef %46) #25
  %48 = load i32, ptr %8, align 4, !tbaa !3
  call void @exit(i32 noundef %48) #22
  unreachable

49:                                               ; preds = %20
  %50 = getelementptr inbounds nuw i8, ptr %41, i64 80
  store ptr @_ZL17printPackageErrorPvPKcP13__va_list_tag, ptr %50, align 8, !tbaa !38
  %51 = load ptr, ptr @stderr, align 8, !tbaa !36
  %52 = getelementptr inbounds nuw i8, ptr %41, i64 88
  store ptr %51, ptr %52, align 8, !tbaa !40
  %53 = getelementptr inbounds nuw i8, ptr %16, i64 8
  %54 = load ptr, ptr %53, align 8, !tbaa !33
  %55 = getelementptr inbounds nuw i8, ptr %16, i64 16
  %56 = load i32, ptr %55, align 8, !tbaa !55
  %57 = call i32 @udata_swap(ptr noundef %41, ptr noundef %54, i32 noundef %56, ptr noundef %54, ptr noundef nonnull %8)
  %58 = load i32, ptr %8, align 4, !tbaa !3
  %59 = icmp slt i32 %58, 1
  br i1 %59, label %65, label %60

60:                                               ; preds = %49
  %61 = load ptr, ptr @stderr, align 8, !tbaa !36
  %62 = call ptr @u_errorName_77(i32 noundef %58)
  %63 = call i32 (ptr, ptr, ...) @fprintf(ptr noundef %61, ptr noundef nonnull @.str.27, i64 noundef %15, ptr noundef %62) #25
  %64 = load i32, ptr %8, align 4, !tbaa !3
  call void @exit(i32 noundef %64) #22
  unreachable

65:                                               ; preds = %49
  call void @udata_closeSwapper_77(ptr noundef nonnull %41)
  store i8 %4, ptr %18, align 1, !tbaa !56
  call void @llvm.lifetime.end.p0(i64 4, ptr nonnull %8) #23
  br label %66

66:                                               ; preds = %65, %17, %12
  call void @llvm.lifetime.start.p0(i64 4, ptr nonnull %6) #23
  call fastcc void @_ZL16makeFullFilenamePKcS0_Pci(ptr noundef %1, ptr noundef %2, ptr noundef nonnull %7)
  store i32 0, ptr %6, align 4, !tbaa !3
  %strlen.i = call i64 @strlen(ptr nonnull dereferenceable(1) %7)
  %strchr.i = getelementptr inbounds i8, ptr %7, i64 %strlen.i
  %67 = call i64 @strlen(ptr noundef nonnull dereferenceable(1) %2) #24
  %68 = sub i64 0, %67
  %69 = getelementptr inbounds i8, ptr %strchr.i, i64 %68
  %70 = call noundef ptr @strchr(ptr noundef nonnull dereferenceable(1) %69, i32 noundef 47) #24
  %.not16.i = icmp eq ptr %70, null
  br i1 %.not16.i, label %_ZL23makeFullFilenameAndDirsPKcS0_Pci.exit, label %.lr.ph.i

.lr.ph.i:                                         ; preds = %66, %78
  %71 = phi ptr [ %80, %78 ], [ %70, %66 ]
  %.not14.i = icmp eq ptr %71, %7
  br i1 %.not14.i, label %78, label %72

72:                                               ; preds = %.lr.ph.i
  store i8 0, ptr %71, align 1, !tbaa !19
  call void @uprv_mkdir(ptr noundef nonnull %7, ptr noundef nonnull %6)
  %73 = load i32, ptr %6, align 4, !tbaa !3
  %74 = icmp slt i32 %73, 1
  br i1 %74, label %78, label %75

75:                                               ; preds = %72
  %76 = load ptr, ptr @stderr, align 8, !tbaa !36
  %77 = call i32 (ptr, ptr, ...) @fprintf(ptr noundef %76, ptr noundef nonnull @.str.48, ptr noundef nonnull %7) #25
  call void @exit(i32 noundef 4) #26
  unreachable

78:                                               ; preds = %72, %.lr.ph.i
  %79 = getelementptr inbounds nuw i8, ptr %71, i64 1
  store i8 47, ptr %71, align 1, !tbaa !19
  %80 = call noundef ptr @strchr(ptr noundef nonnull dereferenceable(1) %79, i32 noundef 47) #24
  %.not.i = icmp eq ptr %80, null
  br i1 %.not.i, label %_ZL23makeFullFilenameAndDirsPKcS0_Pci.exit, label %.lr.ph.i, !llvm.loop !77

_ZL23makeFullFilenameAndDirsPKcS0_Pci.exit:       ; preds = %78, %66
  call void @llvm.lifetime.end.p0(i64 4, ptr nonnull %6) #23
  %81 = call noalias ptr @fopen(ptr noundef nonnull %7, ptr noundef nonnull @.str.16)
  %82 = icmp eq ptr %81, null
  br i1 %82, label %83, label %86

83:                                               ; preds = %_ZL23makeFullFilenameAndDirsPKcS0_Pci.exit
  %84 = load ptr, ptr @stderr, align 8, !tbaa !36
  %85 = call i32 (ptr, ptr, ...) @fprintf(ptr noundef %84, ptr noundef nonnull @.str.17, ptr noundef nonnull %7) #25
  call void @exit(i32 noundef 4) #26
  unreachable

86:                                               ; preds = %_ZL23makeFullFilenameAndDirsPKcS0_Pci.exit
  %87 = getelementptr inbounds nuw i8, ptr %16, i64 8
  %88 = load ptr, ptr %87, align 8, !tbaa !33
  %89 = getelementptr inbounds nuw i8, ptr %16, i64 16
  %90 = load i32, ptr %89, align 8, !tbaa !55
  %91 = sext i32 %90 to i64
  %92 = call i64 @fwrite(ptr noundef %88, i64 noundef 1, i64 noundef %91, ptr noundef nonnull %81)
  %93 = call i32 @ferror(ptr noundef nonnull %81) #23
  %.not35 = icmp eq i32 %93, 0
  br i1 %.not35, label %94, label %97

94:                                               ; preds = %86
  %95 = trunc i64 %92 to i32
  %96 = load i32, ptr %89, align 8, !tbaa !55
  %.not36 = icmp eq i32 %96, %95
  br i1 %.not36, label %100, label %97

97:                                               ; preds = %94, %86
  %98 = load ptr, ptr @stderr, align 8, !tbaa !36
  %99 = call i32 (ptr, ptr, ...) @fprintf(ptr noundef %98, ptr noundef nonnull @.str.29, ptr noundef nonnull %7) #25
  call void @exit(i32 noundef 4) #26
  unreachable

100:                                              ; preds = %94
  %101 = call i32 @fclose(ptr noundef nonnull %81)
  br label %102

102:                                              ; preds = %5, %100
  call void @llvm.lifetime.end.p0(i64 1024, ptr nonnull %7) #23
  ret void
}